; Function Attrs: null_pointer_is_valid sspstrong uwtable
define internal fastcc i32 @dissect_rsl_ie_enc_inf(ptr noundef %0, ptr noundef %1, i32 noundef %2, i1 noundef zeroext %3) unnamed_addr #0 {
  %5 = alloca ptr, align 8
  call void @llvm.lifetime.start.p0(i64 8, ptr nonnull %5) #6
  br i1 %3, label %8, label %6

6:                                                ; preds = %4
  %7 = tail call zeroext i8 @tvb_get_uint8(ptr noundef %0, i32 noundef %2)
  %.not = icmp eq i8 %7, 7
  br i1 %.not, label %8, label %28

8:                                                ; preds = %6, %4
  %9 = load i32, ptr @ett_ie_enc_inf, align 4
  %10 = call ptr @proto_tree_add_subtree(ptr noundef %1, ptr noundef %0, i32 noundef %2, i32 noundef 0, i32 noundef %9, ptr noundef nonnull %5, ptr noundef nonnull @.str.800)
  %11 = load i32, ptr @hf_rsl_ie_id, align 4
  %12 = call ptr @proto_tree_add_item(ptr noundef %10, i32 noundef %11, ptr noundef %0, i32 noundef %2, i32 noundef 1, i32 noundef 0)
  %13 = add i32 %2, 1
  %14 = call zeroext i8 @tvb_get_uint8(ptr noundef %0, i32 noundef %13)
  %15 = load ptr, ptr %5, align 8
  %16 = zext i8 %14 to i32
  %17 = add nuw nsw i32 %16, 2
  call void @proto_item_set_len(ptr noundef %15, i32 noundef %17)
  %18 = load i32, ptr @hf_rsl_ie_length, align 4
  %19 = call ptr @proto_tree_add_item(ptr noundef %10, i32 noundef %18, ptr noundef %0, i32 noundef %13, i32 noundef 1, i32 noundef 0)
  %20 = add i32 %2, 2
  %21 = load i32, ptr @hf_rsl_alg_id, align 4
  %22 = call ptr @proto_tree_add_item(ptr noundef %10, i32 noundef %21, ptr noundef %0, i32 noundef %20, i32 noundef 1, i32 noundef 0)
  %23 = load i32, ptr @hf_rsl_key, align 4
  %24 = add i32 %2, 3
  %25 = add nsw i32 %16, -1
  %26 = call ptr @proto_tree_add_item(ptr noundef %10, i32 noundef %23, ptr noundef %0, i32 noundef %24, i32 noundef %25, i32 noundef 0)
  %27 = add i32 %20, %16
  br label %28

28:                                               ; preds = %6, %8
  %.0 = phi i32 [ %27, %8 ], [ %2, %6 ]
  call void @llvm.lifetime.end.p0(i64 8, ptr nonnull %5) #6
  ret i32 %.0
}